target datalayout = "e-m:e-p270:32:32-p271:32:32-p272:64:64-i64:64-i128:128-f80:128-n8:16:32:64-S128"
target triple = "x86_64-unknown-linux-gnu"

%"class.icu_75::MaybeStackArray" = type <{ ptr, i32, i8, [40 x i8], [3 x i8] }>
%"class.icu_75::numparse::impl::MinusSignMatcher" = type <{ %"class.icu_75::numparse::impl::SymbolMatcher", i8, [7 x i8] }>
%"class.icu_75::numparse::impl::SymbolMatcher" = type { %"class.icu_75::numparse::impl::NumberParseMatcher", %"class.icu_75::UnicodeString", ptr }
%"class.icu_75::numparse::impl::NumberParseMatcher" = type { ptr }
%"class.icu_75::UnicodeString" = type { %"class.icu_75::Replaceable", %"union.icu_75::UnicodeString::StackBufferOrFields" }
%"class.icu_75::Replaceable" = type { %"class.icu_75::UObject" }
%"class.icu_75::UObject" = type { ptr }
%"union.icu_75::UnicodeString::StackBufferOrFields" = type { %struct.anon.1, [32 x i8] }
%struct.anon.1 = type { i16, i32, i32, ptr }
%"class.icu_75::numparse::impl::AffixTokenMatcherWarehouse" = type { ptr, %"class.icu_75::numparse::impl::MinusSignMatcher", %"class.icu_75::numparse::impl::PlusSignMatcher", %"class.icu_75::numparse::impl::PercentMatcher", %"class.icu_75::numparse::impl::PermilleMatcher", %"class.icu_75::numparse::impl::CombinedCurrencyMatcher", %"class.icu_75::MemoryPool" }
%"class.icu_75::numparse::impl::PlusSignMatcher" = type <{ %"class.icu_75::numparse::impl::SymbolMatcher", i8, [7 x i8] }>
%"class.icu_75::numparse::impl::PercentMatcher" = type { %"class.icu_75::numparse::impl::SymbolMatcher" }
%"class.icu_75::numparse::impl::PermilleMatcher" = type { %"class.icu_75::numparse::impl::SymbolMatcher" }
%"class.icu_75::numparse::impl::CombinedCurrencyMatcher" = type { %"class.icu_75::numparse::impl::NumberParseMatcher", [4 x i16], %"class.icu_75::UnicodeString", %"class.icu_75::UnicodeString", i8, [8 x %"class.icu_75::UnicodeString"], %"class.icu_75::UnicodeString", %"class.icu_75::UnicodeString", %"class.icu_75::CharString" }
%"class.icu_75::CharString" = type { %"class.icu_75::MaybeStackArray", i32, [4 x i8] }
%"class.icu_75::MemoryPool" = type { i32, %"class.icu_75::MaybeStackArray.2" }
%"class.icu_75::MaybeStackArray.2" = type { ptr, i32, i8, [8 x ptr] }
%"struct.icu_75::numparse::impl::AffixTokenMatcherSetupData" = type <{ ptr, ptr, ptr, ptr, i32, [4 x i8] }>

@_ZTVN6icu_758numparse4impl23CombinedCurrencyMatcherE = external unnamed_addr constant { [9 x ptr] }, align 8
@_ZN6icu_7515MaybeStackArrayIcLi40EED1Ev = weak_odr unnamed_addr alias void (ptr), ptr @_ZN6icu_7515MaybeStackArrayIcLi40EED2Ev

; Function Attrs: mustprogress nounwind uwtable
define linkonce_odr void @_ZN6icu_7510CharStringD2Ev(ptr noundef nonnull align 8 dereferenceable(60) %this) unnamed_addr #0 comdat align 2 {
entry:
  %this.addr = alloca ptr, align 8
  store ptr %this, ptr %this.addr, align 8
  %this1 = load ptr, ptr %this.addr, align 8
  %buffer = getelementptr inbounds %"class.icu_75::CharString", ptr %this1, i32 0, i32 0
  call void @_ZN6icu_7515MaybeStackArrayIcLi40EED1Ev(ptr noundef nonnull align 8 dereferenceable(53) %buffer) #13
  ret void
}

; Function Attrs: mustprogress nounwind uwtable
define linkonce_odr void @_ZN6icu_758numparse4impl23CombinedCurrencyMatcherD2Ev(ptr noundef nonnull align 8 dereferenceable(856) %this) unnamed_addr #0 comdat align 2 {
entry:
  %this.addr = alloca ptr, align 8
  store ptr %this, ptr %this.addr, align 8
  %this1 = load ptr, ptr %this.addr, align 8
  store ptr getelementptr inbounds ({ [9 x ptr] }, ptr @_ZTVN6icu_758numparse4impl23CombinedCurrencyMatcherE, i32 0, i32 0, i32 2), ptr %this1, align 8
  %fLocaleName = getelementptr inbounds %"class.icu_75::numparse::impl::CombinedCurrencyMatcher", ptr %this1, i32 0, i32 8
  call void @_ZN6icu_7510CharStringD2Ev(ptr noundef nonnull align 8 dereferenceable(60) %fLocaleName) #13
  %beforeSuffixInsert = getelementptr inbounds %"class.icu_75::numparse::impl::CombinedCurrencyMatcher", ptr %this1, i32 0, i32 7
  call void @_ZN6icu_7513UnicodeStringD1Ev(ptr noundef nonnull align 8 dereferenceable(64) %beforeSuffixInsert) #13
  %afterPrefixInsert = getelementptr inbounds %"class.icu_75::numparse::impl::CombinedCurrencyMatcher", ptr %this1, i32 0, i32 6
  call void @_ZN6icu_7513UnicodeStringD1Ev(ptr noundef nonnull align 8 dereferenceable(64) %afterPrefixInsert) #13
  %fLocalLongNames = getelementptr inbounds %"class.icu_75::numparse::impl::CombinedCurrencyMatcher", ptr %this1, i32 0, i32 5
  %array.begin = getelementptr inbounds [8 x %"class.icu_75::UnicodeString"], ptr %fLocalLongNames, i32 0, i32 0
  %0 = getelementptr inbounds %"class.icu_75::UnicodeString", ptr %array.begin, i64 8
  br label %arraydestroy.body

arraydestroy.body:                                ; preds = %arraydestroy.body, %entry
  %arraydestroy.elementPast = phi ptr [ %0, %entry ], [ %arraydestroy.element, %arraydestroy.body ]
  %arraydestroy.element = getelementptr inbounds %"class.icu_75::UnicodeString", ptr %arraydestroy.elementPast, i64 -1
  call void @_ZN6icu_7513UnicodeStringD1Ev(ptr noundef nonnull align 8 dereferenceable(64) %arraydestroy.element) #13
  %arraydestroy.done = icmp eq ptr %arraydestroy.element, %array.begin
  br i1 %arraydestroy.done, label %arraydestroy.done2, label %arraydestroy.body

arraydestroy.done2:                               ; preds = %arraydestroy.body
  %fCurrency2 = getelementptr inbounds %"class.icu_75::numparse::impl::CombinedCurrencyMatcher", ptr %this1, i32 0, i32 3
  call void @_ZN6icu_7513UnicodeStringD1Ev(ptr noundef nonnull align 8 dereferenceable(64) %fCurrency2) #13
  %fCurrency1 = getelementptr inbounds %"class.icu_75::numparse::impl::CombinedCurrencyMatcher", ptr %this1, i32 0, i32 2
  call void @_ZN6icu_7513UnicodeStringD1Ev(ptr noundef nonnull align 8 dereferenceable(64) %fCurrency1) #13
  call void @_ZN6icu_758numparse4impl18NumberParseMatcherD2Ev(ptr noundef nonnull align 8 dereferenceable(8) %this1) #13
  ret void
}

; Function Attrs: mustprogress uwtable
define noundef nonnull align 8 dereferenceable(8) ptr @_ZN6icu_758numparse4impl26AffixTokenMatcherWarehouse8currencyER10UErrorCode(ptr noundef nonnull align 8 dereferenceable(1288) %this, ptr noundef nonnull align 4 dereferenceable(4) %status) #1 align 2 {
entry:
  %this.addr = alloca ptr, align 8
  %status.addr = alloca ptr, align 8
  %ref.tmp = alloca %"class.icu_75::numparse::impl::CombinedCurrencyMatcher", align 8
  store ptr %this, ptr %this.addr, align 8
  store ptr %status, ptr %status.addr, align 8
  %this1 = load ptr, ptr %this.addr, align 8
  %fSetupData = getelementptr inbounds %"class.icu_75::numparse::impl::AffixTokenMatcherWarehouse", ptr %this1, i32 0, i32 0
  %0 = load ptr, ptr %fSetupData, align 8
  %currencySymbols = getelementptr inbounds %"struct.icu_75::numparse::impl::AffixTokenMatcherSetupData", ptr %0, i32 0, i32 0
  %1 = load ptr, ptr %currencySymbols, align 8
  %fSetupData2 = getelementptr inbounds %"class.icu_75::numparse::impl::AffixTokenMatcherWarehouse", ptr %this1, i32 0, i32 0
  %2 = load ptr, ptr %fSetupData2, align 8
  %dfs = getelementptr inbounds %"struct.icu_75::numparse::impl::AffixTokenMatcherSetupData", ptr %2, i32 0, i32 1
  %3 = load ptr, ptr %dfs, align 8
  %fSetupData3 = getelementptr inbounds %"class.icu_75::numparse::impl::AffixTokenMatcherWarehouse", ptr %this1, i32 0, i32 0
  %4 = load ptr, ptr %fSetupData3, align 8
  %parseFlags = getelementptr inbounds %"struct.icu_75::numparse::impl::AffixTokenMatcherSetupData", ptr %4, i32 0, i32 4
  %5 = load i32, ptr %parseFlags, align 8
  %6 = load ptr, ptr %status.addr, align 8
  call void @_ZN6icu_758numparse4impl23CombinedCurrencyMatcherC1ERKNS_6number4impl15CurrencySymbolsERKNS_20DecimalFormatSymbolsEiR10UErrorCode(ptr noundef nonnull align 8 dereferenceable(856) %ref.tmp, ptr noundef nonnull align 8 dereferenceable(232) %1, ptr noundef nonnull align 8 dereferenceable(2883) %3, i32 noundef %5, ptr noundef nonnull align 4 dereferenceable(4) %6)
  %fCurrency = getelementptr inbounds %"class.icu_75::numparse::impl::AffixTokenMatcherWarehouse", ptr %this1, i32 0, i32 5
  %call = call noundef nonnull align 8 dereferenceable(856) ptr @_ZN6icu_758numparse4impl23CombinedCurrencyMatcheraSEOS2_(ptr noundef nonnull align 8 dereferenceable(856) %fCurrency, ptr noundef nonnull align 8 dereferenceable(856) %ref.tmp) #13
  call void @_ZN6icu_758numparse4impl23CombinedCurrencyMatcherD2Ev(ptr noundef nonnull align 8 dereferenceable(856) %ref.tmp) #13
  ret ptr %call
}