; Function Attrs: mustprogress uwtable
define noundef nonnull align 8 dereferenceable(8) ptr @_ZN6icu_758numparse4impl26AffixTokenMatcherWarehouse8currencyER10UErrorCode(ptr noundef nonnull align 8 dereferenceable(1288) %this, ptr noundef nonnull align 4 dereferenceable(4) %status) local_unnamed_addr #1 align 2 {
entry:
  %ref.tmp = alloca %"class.icu_75::numparse::impl::CombinedCurrencyMatcher", align 8
  %0 = load ptr, ptr %this, align 8
  %1 = load ptr, ptr %0, align 8
  %dfs = getelementptr inbounds i8, ptr %0, i64 8
  %2 = load ptr, ptr %dfs, align 8
  %parseFlags = getelementptr inbounds i8, ptr %0, i64 32
  %3 = load i32, ptr %parseFlags, align 8
  call void @_ZN6icu_758numparse4impl23CombinedCurrencyMatcherC1ERKNS_6number4impl15CurrencySymbolsERKNS_20DecimalFormatSymbolsEiR10UErrorCode(ptr noundef nonnull align 8 dereferenceable(856) %ref.tmp, ptr noundef nonnull align 8 dereferenceable(232) %1, ptr noundef nonnull align 8 dereferenceable(2883) %2, i32 noundef %3, ptr noundef nonnull align 4 dereferenceable(4) %status)
  %fCurrency = getelementptr inbounds i8, ptr %this, i64 344
  %call = call noundef nonnull align 8 dereferenceable(856) ptr @_ZN6icu_758numparse4impl23CombinedCurrencyMatcheraSEOS2_(ptr noundef nonnull align 8 dereferenceable(856) %fCurrency, ptr noundef nonnull align 8 dereferenceable(856) %ref.tmp) #16
  store ptr getelementptr inbounds ({ [9 x ptr] }, ptr @_ZTVN6icu_758numparse4impl23CombinedCurrencyMatcherE, i64 0, i32 0, i64 2), ptr %ref.tmp, align 8
  %fLocaleName.i = getelementptr inbounds i8, ptr %ref.tmp, i64 792
  call void @_ZN6icu_7515MaybeStackArrayIcLi40EED1Ev(ptr noundef nonnull align 8 dereferenceable(53) %fLocaleName.i) #16
  %beforeSuffixInsert.i = getelementptr inbounds i8, ptr %ref.tmp, i64 728
  call void @_ZN6icu_7513UnicodeStringD1Ev(ptr noundef nonnull align 8 dereferenceable(64) %beforeSuffixInsert.i) #16
  %afterPrefixInsert.i = getelementptr inbounds i8, ptr %ref.tmp, i64 664
  call void @_ZN6icu_7513UnicodeStringD1Ev(ptr noundef nonnull align 8 dereferenceable(64) %afterPrefixInsert.i) #16
  br label %arraydestroy.body.i

arraydestroy.body.i:                              ; preds = %arraydestroy.body.i, %entry
  %arraydestroy.elementPast.idx.i = phi i64 [ 664, %entry ], [ %arraydestroy.elementPast.add.i, %arraydestroy.body.i ]
  %arraydestroy.elementPast.add.i = add nsw i64 %arraydestroy.elementPast.idx.i, -64
  %arraydestroy.element.ptr.i = getelementptr inbounds i8, ptr %ref.tmp, i64 %arraydestroy.elementPast.add.i
  call void @_ZN6icu_7513UnicodeStringD1Ev(ptr noundef nonnull align 8 dereferenceable(64) %arraydestroy.element.ptr.i) #16
  %arraydestroy.done.i = icmp eq i64 %arraydestroy.elementPast.add.i, 152
  br i1 %arraydestroy.done.i, label %_ZN6icu_758numparse4impl23CombinedCurrencyMatcherD2Ev.exit, label %arraydestroy.body.i

_ZN6icu_758numparse4impl23CombinedCurrencyMatcherD2Ev.exit: ; preds = %arraydestroy.body.i
  %fCurrency2.i = getelementptr inbounds i8, ptr %ref.tmp, i64 80
  call void @_ZN6icu_7513UnicodeStringD1Ev(ptr noundef nonnull align 8 dereferenceable(64) %fCurrency2.i) #16
  %fCurrency1.i = getelementptr inbounds i8, ptr %ref.tmp, i64 16
  call void @_ZN6icu_7513UnicodeStringD1Ev(ptr noundef nonnull align 8 dereferenceable(64) %fCurrency1.i) #16
  call void @_ZN6icu_758numparse4impl18NumberParseMatcherD2Ev(ptr noundef nonnull align 8 dereferenceable(8) %ref.tmp) #16
  ret ptr %call
}